; Function Attrs: mustprogress uwtable
define hidden void @_ZN11opencv_onnx18OperatorSetIdProto5ClearEv(ptr noundef nonnull align 8 dereferenceable(40) initializes((32, 40)) %0) unnamed_addr #3 align 2 personality ptr @__gxx_personality_v0 {
  %2 = getelementptr inbounds nuw i8, ptr %0, i64 16
  %3 = load i32, ptr %2, align 8, !tbaa !51
  %4 = and i32 %3, 1
  %.not = icmp eq i32 %4, 0
  br i1 %.not, label %13, label %5

5:                                                ; preds = %1
  %6 = getelementptr inbounds nuw i8, ptr %0, i64 24
  %7 = load ptr, ptr %6, align 8, !tbaa !41
  %8 = ptrtoint ptr %7 to i64
  %9 = and i64 %8, -2
  %10 = inttoptr i64 %9 to ptr
  %11 = getelementptr inbounds nuw i8, ptr %10, i64 8
  store i64 0, ptr %11, align 8, !tbaa !53
  %12 = load ptr, ptr %10, align 8, !tbaa !57
  store i8 0, ptr %12, align 1, !tbaa !46
  br label %13

13:                                               ; preds = %5, %1
  %14 = getelementptr inbounds nuw i8, ptr %0, i64 32
  store i64 0, ptr %14, align 8, !tbaa !179
  store i32 0, ptr %2, align 8
  %15 = getelementptr inbounds nuw i8, ptr %0, i64 8
  %16 = load i64, ptr %15, align 8, !tbaa !33
  %17 = and i64 %16, 1
  %.not1 = icmp eq i64 %17, 0
  br i1 %.not1, label %_ZN6google8protobuf8internal16InternalMetadata5ClearINS0_15UnknownFieldSetEEEvv.exit, label %18

18:                                               ; preds = %13
  tail call void @_ZN6google8protobuf8internal16InternalMetadata7DoClearINS0_15UnknownFieldSetEEEvv(ptr noundef nonnull align 8 dereferenceable(8) %15)
  br label %_ZN6google8protobuf8internal16InternalMetadata5ClearINS0_15UnknownFieldSetEEEvv.exit

_ZN6google8protobuf8internal16InternalMetadata5ClearINS0_15UnknownFieldSetEEEvv.exit: ; preds = %13, %18
  ret void
}